; Function Attrs: mustprogress nofree norecurse nosync nounwind willreturn memory(argmem: readwrite) uwtable
define void @_ZN6icu_7513LocaleMatcher6ResultC2EOS1_(ptr nocapture noundef nonnull writeonly align 8 dereferenceable(25) %this, ptr nocapture noundef nonnull align 8 dereferenceable(25) %src) unnamed_addr #0 align 2 {
entry:
  %0 = load ptr, ptr %src, align 8
  store ptr %0, ptr %this, align 8
  %supportedLocale = getelementptr inbounds i8, ptr %this, i64 8
  %supportedLocale3 = getelementptr inbounds i8, ptr %src, i64 8
  %1 = load ptr, ptr %supportedLocale3, align 8
  store ptr %1, ptr %supportedLocale, align 8
  %desiredIndex = getelementptr inbounds i8, ptr %this, i64 16
  %desiredIndex4 = getelementptr inbounds i8, ptr %src, i64 16
  %2 = load i32, ptr %desiredIndex4, align 8
  store i32 %2, ptr %desiredIndex, align 8
  %supportedIndex = getelementptr inbounds i8, ptr %this, i64 20
  %supportedIndex5 = getelementptr inbounds i8, ptr %src, i64 20
  %3 = load i32, ptr %supportedIndex5, align 4
  store i32 %3, ptr %supportedIndex, align 4
  %desiredIsOwned = getelementptr inbounds i8, ptr %this, i64 24
  %desiredIsOwned6 = getelementptr inbounds i8, ptr %src, i64 24
  %4 = load i8, ptr %desiredIsOwned6, align 8
  store i8 %4, ptr %desiredIsOwned, align 8
  %tobool.not = icmp eq i8 %4, 0
  br i1 %tobool.not, label %if.end, label %if.then

if.then:                                          ; preds = %entry
  store ptr null, ptr %src, align 8
  store i32 -1, ptr %desiredIndex4, align 8
  store i8 0, ptr %desiredIsOwned6, align 8
  br label %if.end

if.end:                                           ; preds = %if.then, %entry
  ret void
}